	.text
	.file	"simple_inheritance.cpp"
	.globl	main                    # -- Begin function main
	.p2align	4, 0x90
	.type	main,@function
main:                                   # @main
.Lfunc_begin0:
	.file	1 "src" "simple_inheritance.cpp"
	.loc	1 11 0                  # src/simple_inheritance.cpp:11:0
	.cfi_startproc
# %bb.0:
	pushq	%rbp
	.cfi_def_cfa_offset 16
	.cfi_offset %rbp, -16
	movq	%rsp, %rbp
	.cfi_def_cfa_register %rbp
	subq	$48, %rsp
	movl	$0, -4(%rbp)
	movl	%edi, -8(%rbp)
	movq	%rsi, -16(%rbp)
.Ltmp0:
	.loc	1 14 12 prologue_end    # src/simple_inheritance.cpp:14:12
	cmpl	$0, -8(%rbp)
.Ltmp1:
	.loc	1 14 7 is_stmt 0        # src/simple_inheritance.cpp:14:7
	jne	.LBB0_2
# %bb.1:
	.loc	1 0 7                   # src/simple_inheritance.cpp:0:7
	movl	$8, %eax
	movl	%eax, %edi
.Ltmp2:
	.loc	1 15 13 is_stmt 1       # src/simple_inheritance.cpp:15:13
	callq	_Znwm@PLT
	xorl	%esi, %esi
	movl	$8, %ecx
	movl	%ecx, %edx
	.loc	1 15 17 is_stmt 0       # src/simple_inheritance.cpp:15:17
	movq	%rax, %rdi
	movq	%rax, -32(%rbp)         # 8-byte Spill
	callq	memset@PLT
	movq	-32(%rbp), %rdi         # 8-byte Reload
	callq	_ZN5ShapeC2Ev
	.loc	1 15 11                 # src/simple_inheritance.cpp:15:11
	movq	-32(%rbp), %rax         # 8-byte Reload
	movq	%rax, -24(%rbp)
	.loc	1 16 3 is_stmt 1        # src/simple_inheritance.cpp:16:3
	jmp	.LBB0_3
.Ltmp3:
.LBB0_2:
	.loc	1 0 3 is_stmt 0         # src/simple_inheritance.cpp:0:3
	movl	$8, %eax
	movl	%eax, %edi
.Ltmp4:
	.loc	1 17 13 is_stmt 1       # src/simple_inheritance.cpp:17:13
	callq	_Znwm@PLT
	xorl	%esi, %esi
	movl	$8, %ecx
	movl	%ecx, %edx
	.loc	1 17 17 is_stmt 0       # src/simple_inheritance.cpp:17:17
	movq	%rax, %rdi
	movq	%rax, -40(%rbp)         # 8-byte Spill
	callq	memset@PLT
	movq	-40(%rbp), %rdi         # 8-byte Reload
	callq	_ZN9RectangleC2Ev
	.loc	1 17 13                 # src/simple_inheritance.cpp:17:13
	movq	-40(%rbp), %rax         # 8-byte Reload
	.loc	1 17 11                 # src/simple_inheritance.cpp:17:11
	movq	%rax, -24(%rbp)
.Ltmp5:
.LBB0_3:
	.loc	1 20 3 is_stmt 1        # src/simple_inheritance.cpp:20:3
	movq	-24(%rbp), %rax
	.loc	1 20 10 is_stmt 0       # src/simple_inheritance.cpp:20:10
	movq	(%rax), %rcx
	movq	%rax, %rdi
	callq	*(%rcx)
	.loc	1 21 10 is_stmt 1       # src/simple_inheritance.cpp:21:10
	movq	-24(%rbp), %rax
	.loc	1 21 3 is_stmt 0        # src/simple_inheritance.cpp:21:3
	cmpq	$0, %rax
	movq	%rax, -48(%rbp)         # 8-byte Spill
	je	.LBB0_5
# %bb.4:
	movq	-48(%rbp), %rax         # 8-byte Reload
	movq	%rax, %rdi
	callq	_ZdlPv@PLT
.LBB0_5:
	.loc	1 22 1 is_stmt 1        # src/simple_inheritance.cpp:22:1
	movl	-4(%rbp), %eax
	addq	$48, %rsp
	popq	%rbp
	retq
.Ltmp6:
.Lfunc_end0:
	.size	main, .Lfunc_end0-main
	.cfi_endproc
                                        # -- End function
	.section	.text._ZN5ShapeC2Ev,"axG",@progbits,_ZN5ShapeC2Ev,comdat
	.weak	_ZN5ShapeC2Ev           # -- Begin function _ZN5ShapeC2Ev
	.p2align	4, 0x90
	.type	_ZN5ShapeC2Ev,@function
_ZN5ShapeC2Ev:                          # @_ZN5ShapeC2Ev
.Lfunc_begin1:
	.loc	1 1 0                   # src/simple_inheritance.cpp:1:0
	.cfi_startproc
# %bb.0:
	pushq	%rbp
	.cfi_def_cfa_offset 16
	.cfi_offset %rbp, -16
	movq	%rsp, %rbp
	.cfi_def_cfa_register %rbp
	leaq	_ZTV5Shape(%rip), %rax
	addq	$16, %rax
	movq	%rdi, -8(%rbp)
	movq	-8(%rbp), %rdi
.Ltmp7:
	.loc	1 1 7 prologue_end      # src/simple_inheritance.cpp:1:7
	movq	%rax, (%rdi)
	popq	%rbp
	retq
.Ltmp8:
.Lfunc_end1:
	.size	_ZN5ShapeC2Ev, .Lfunc_end1-_ZN5ShapeC2Ev
	.cfi_endproc
                                        # -- End function
	.section	.text._ZN9RectangleC2Ev,"axG",@progbits,_ZN9RectangleC2Ev,comdat
	.weak	_ZN9RectangleC2Ev       # -- Begin function _ZN9RectangleC2Ev
	.p2align	4, 0x90
	.type	_ZN9RectangleC2Ev,@function
_ZN9RectangleC2Ev:                      # @_ZN9RectangleC2Ev
.Lfunc_begin2:
	.loc	1 6 0                   # src/simple_inheritance.cpp:6:0
	.cfi_startproc
# %bb.0:
	pushq	%rbp
	.cfi_def_cfa_offset 16
	.cfi_offset %rbp, -16
	movq	%rsp, %rbp
	.cfi_def_cfa_register %rbp
	subq	$16, %rsp
	movq	%rdi, -8(%rbp)
	movq	-8(%rbp), %rdi
.Ltmp9:
	.loc	1 6 7 prologue_end      # src/simple_inheritance.cpp:6:7
	movq	%rdi, %rax
	movq	%rdi, -16(%rbp)         # 8-byte Spill
	movq	%rax, %rdi
	callq	_ZN5ShapeC2Ev
	leaq	_ZTV9Rectangle(%rip), %rax
	addq	$16, %rax
	movq	-16(%rbp), %rdi         # 8-byte Reload
	movq	%rax, (%rdi)
	addq	$16, %rsp
	popq	%rbp
	retq
.Ltmp10:
.Lfunc_end2:
	.size	_ZN9RectangleC2Ev, .Lfunc_end2-_ZN9RectangleC2Ev
	.cfi_endproc
                                        # -- End function
	.section	.text._ZN5Shape4drawEv,"axG",@progbits,_ZN5Shape4drawEv,comdat
	.weak	_ZN5Shape4drawEv        # -- Begin function _ZN5Shape4drawEv
	.p2align	4, 0x90
	.type	_ZN5Shape4drawEv,@function
_ZN5Shape4drawEv:                       # @_ZN5Shape4drawEv
.Lfunc_begin3:
	.loc	1 3 0                   # src/simple_inheritance.cpp:3:0
	.cfi_startproc
# %bb.0:
	pushq	%rbp
	.cfi_def_cfa_offset 16
	.cfi_offset %rbp, -16
	movq	%rsp, %rbp
	.cfi_def_cfa_register %rbp
	movq	%rdi, -8(%rbp)
.Ltmp11:
	.loc	1 3 24 prologue_end     # src/simple_inheritance.cpp:3:24
	popq	%rbp
	retq
.Ltmp12:
.Lfunc_end3:
	.size	_ZN5Shape4drawEv, .Lfunc_end3-_ZN5Shape4drawEv
	.cfi_endproc
                                        # -- End function
	.section	.text._ZN9Rectangle4drawEv,"axG",@progbits,_ZN9Rectangle4drawEv,comdat
	.weak	_ZN9Rectangle4drawEv    # -- Begin function _ZN9Rectangle4drawEv
	.p2align	4, 0x90
	.type	_ZN9Rectangle4drawEv,@function
_ZN9Rectangle4drawEv:                   # @_ZN9Rectangle4drawEv
.Lfunc_begin4:
	.loc	1 8 0                   # src/simple_inheritance.cpp:8:0
	.cfi_startproc
# %bb.0:
	pushq	%rbp
	.cfi_def_cfa_offset 16
	.cfi_offset %rbp, -16
	movq	%rsp, %rbp
	.cfi_def_cfa_register %rbp
	movq	%rdi, -8(%rbp)
.Ltmp13:
	.loc	1 8 24 prologue_end     # src/simple_inheritance.cpp:8:24
	popq	%rbp
	retq
.Ltmp14:
.Lfunc_end4:
	.size	_ZN9Rectangle4drawEv, .Lfunc_end4-_ZN9Rectangle4drawEv
	.cfi_endproc
                                        # -- End function
	.type	_ZTV5Shape,@object      # @_ZTV5Shape
	.section	.data.rel.ro._ZTV5Shape,"aGw",@progbits,_ZTV5Shape,comdat
	.weak	_ZTV5Shape
	.p2align	3
_ZTV5Shape:
	.quad	0
	.quad	_ZTI5Shape
	.quad	_ZN5Shape4drawEv
	.size	_ZTV5Shape, 24

	.type	_ZTS5Shape,@object      # @_ZTS5Shape
	.section	.rodata._ZTS5Shape,"aG",@progbits,_ZTS5Shape,comdat
	.weak	_ZTS5Shape
_ZTS5Shape:
	.asciz	"5Shape"
	.size	_ZTS5Shape, 7

	.type	_ZTI5Shape,@object      # @_ZTI5Shape
	.section	.data.rel.ro._ZTI5Shape,"aGw",@progbits,_ZTI5Shape,comdat
	.weak	_ZTI5Shape
	.p2align	3
_ZTI5Shape:
	.quad	_ZTVN10__cxxabiv117__class_type_infoE+16
	.quad	_ZTS5Shape
	.size	_ZTI5Shape, 16

	.type	_ZTV9Rectangle,@object  # @_ZTV9Rectangle
	.section	.data.rel.ro._ZTV9Rectangle,"aGw",@progbits,_ZTV9Rectangle,comdat
	.weak	_ZTV9Rectangle
	.p2align	3
_ZTV9Rectangle:
	.quad	0
	.quad	_ZTI9Rectangle
	.quad	_ZN9Rectangle4drawEv
	.size	_ZTV9Rectangle, 24

	.type	_ZTS9Rectangle,@object  # @_ZTS9Rectangle
	.section	.rodata._ZTS9Rectangle,"aG",@progbits,_ZTS9Rectangle,comdat
	.weak	_ZTS9Rectangle
_ZTS9Rectangle:
	.asciz	"9Rectangle"
	.size	_ZTS9Rectangle, 11

	.type	_ZTI9Rectangle,@object  # @_ZTI9Rectangle
	.section	.data.rel.ro._ZTI9Rectangle,"aGw",@progbits,_ZTI9Rectangle,comdat
	.weak	_ZTI9Rectangle
	.p2align	4
_ZTI9Rectangle:
	.quad	_ZTVN10__cxxabiv120__si_class_type_infoE+16
	.quad	_ZTS9Rectangle
	.quad	_ZTI5Shape
	.size	_ZTI9Rectangle, 24

	.file	2 "<stdin>"
	.section	".note.GNU-stack","",@progbits